; Function Attrs: mustprogress uwtable
define void @_ZN6icu_7511TailoredSet15addContractionsEiPKDs(ptr noundef nonnull align 8 dereferenceable(100) %this, i32 noundef %c, ptr noundef %p) local_unnamed_addr #0 align 2 personality ptr @__gxx_personality_v0 {
entry:
  %ref.tmp.i = alloca %"class.icu_75::UnicodeString", align 8
  %suffixes = alloca %"class.icu_75::UCharsTrie::Iterator", align 8
  %agg.tmp = alloca %"class.icu_75::ConstChar16Ptr", align 8
  store ptr %p, ptr %agg.tmp, align 8
  %errorCode = getelementptr inbounds i8, ptr %this, i64 96
  invoke void @_ZN6icu_7510UCharsTrie8IteratorC1ENS_14ConstChar16PtrEiR10UErrorCode(ptr noundef nonnull align 8 dereferenceable(120) %suffixes, ptr noundef nonnull %agg.tmp, i32 noundef 0, ptr noundef nonnull align 4 dereferenceable(4) %errorCode)
          to label %invoke.cont unwind label %lpad

invoke.cont:                                      ; preds = %entry
  %0 = load ptr, ptr %agg.tmp, align 8
  call void asm sideeffect "", "rm,~{memory},~{dirflag},~{fpsr},~{flags}"(ptr %0) #9, !srcloc !7
  %str_.i = getelementptr inbounds i8, ptr %suffixes, i64 40
  %tailored.i = getelementptr inbounds i8, ptr %this, i64 16
  %unreversedPrefix.i = getelementptr inbounds i8, ptr %this, i64 24
  %fUnion.i.i.i.i = getelementptr inbounds i8, ptr %suffixes, i64 48
  %fLength.i.i.i = getelementptr inbounds i8, ptr %suffixes, i64 52
  br label %while.cond

while.cond:                                       ; preds = %_ZN6icu_7511TailoredSet9addSuffixEiRKNS_13UnicodeStringE.exit, %invoke.cont
  %call = invoke noundef signext i8 @_ZN6icu_7510UCharsTrie8Iterator4nextER10UErrorCode(ptr noundef nonnull align 8 dereferenceable(120) %suffixes, ptr noundef nonnull align 4 dereferenceable(4) %errorCode)
          to label %invoke.cont4 unwind label %lpad3

invoke.cont4:                                     ; preds = %while.cond
  %tobool.not = icmp eq i8 %call, 0
  br i1 %tobool.not, label %while.end, label %while.body

while.body:                                       ; preds = %invoke.cont4
  call void @llvm.lifetime.start.p0(i64 64, ptr nonnull %ref.tmp.i)
  %1 = load ptr, ptr %tailored.i, align 8
  invoke void @_ZN6icu_7513UnicodeStringC1ERKS0_(ptr noundef nonnull align 8 dereferenceable(64) %ref.tmp.i, ptr noundef nonnull align 8 dereferenceable(64) %unreversedPrefix.i)
          to label %.noexc unwind label %lpad3

.noexc:                                           ; preds = %while.body
  %call.i = invoke noundef nonnull align 8 dereferenceable(64) ptr @_ZN6icu_7513UnicodeString6appendEi(ptr noundef nonnull align 8 dereferenceable(64) %ref.tmp.i, i32 noundef %c)
          to label %invoke.cont.i unwind label %lpad.i

invoke.cont.i:                                    ; preds = %.noexc
  %2 = load i16, ptr %fUnion.i.i.i.i, align 8
  %cmp.i.i.i.i = icmp slt i16 %2, 0
  %3 = ashr i16 %2, 5
  %shr.i.i.i.i = sext i16 %3 to i32
  %4 = load i32, ptr %fLength.i.i.i, align 4
  %cond.i.i.i = select i1 %cmp.i.i.i.i, i32 %4, i32 %shr.i.i.i.i
  %call2.i1.i = invoke noundef nonnull align 8 dereferenceable(64) ptr @_ZN6icu_7513UnicodeString8doAppendERKS0_ii(ptr noundef nonnull align 8 dereferenceable(64) %call.i, ptr noundef nonnull align 8 dereferenceable(64) %str_.i, i32 noundef 0, i32 noundef %cond.i.i.i)
          to label %invoke.cont2.i unwind label %lpad.i

invoke.cont2.i:                                   ; preds = %invoke.cont.i
  %call5.i = invoke noundef nonnull align 8 dereferenceable(200) ptr @_ZN6icu_7510UnicodeSet3addERKNS_13UnicodeStringE(ptr noundef nonnull align 8 dereferenceable(200) %1, ptr noundef nonnull align 8 dereferenceable(64) %call2.i1.i)
          to label %_ZN6icu_7511TailoredSet9addSuffixEiRKNS_13UnicodeStringE.exit unwind label %lpad.i

lpad.i:                                           ; preds = %invoke.cont2.i, %invoke.cont.i, %.noexc
  %5 = landingpad { ptr, i32 }
          cleanup
  call void @_ZN6icu_7513UnicodeStringD1Ev(ptr noundef nonnull align 8 dereferenceable(64) %ref.tmp.i) #9
  br label %lpad3.body

_ZN6icu_7511TailoredSet9addSuffixEiRKNS_13UnicodeStringE.exit: ; preds = %invoke.cont2.i
  call void @_ZN6icu_7513UnicodeStringD1Ev(ptr noundef nonnull align 8 dereferenceable(64) %ref.tmp.i) #9
  call void @llvm.lifetime.end.p0(i64 64, ptr nonnull %ref.tmp.i)
  br label %while.cond

lpad:                                             ; preds = %entry
  %6 = landingpad { ptr, i32 }
          cleanup
  %7 = load ptr, ptr %agg.tmp, align 8
  call void asm sideeffect "", "rm,~{memory},~{dirflag},~{fpsr},~{flags}"(ptr %7) #9, !srcloc !7
  br label %eh.resume

lpad3:                                            ; preds = %while.body, %while.cond
  %8 = landingpad { ptr, i32 }
          cleanup
  br label %lpad3.body

lpad3.body:                                       ; preds = %lpad.i, %lpad3
  %eh.lpad-body = phi { ptr, i32 } [ %8, %lpad3 ], [ %5, %lpad.i ]
  call void @_ZN6icu_7510UCharsTrie8IteratorD1Ev(ptr noundef nonnull align 8 dereferenceable(120) %suffixes) #9
  br label %eh.resume

while.end:                                        ; preds = %invoke.cont4
  call void @_ZN6icu_7510UCharsTrie8IteratorD1Ev(ptr noundef nonnull align 8 dereferenceable(120) %suffixes) #9
  ret void

eh.resume:                                        ; preds = %lpad3.body, %lpad
  %.pn = phi { ptr, i32 } [ %eh.lpad-body, %lpad3.body ], [ %6, %lpad ]
  resume { ptr, i32 } %.pn
}